target datalayout = "e-m:e-p270:32:32-p271:32:32-p272:64:64-i64:64-i128:128-f80:128-n8:16:32:64-S128"
target triple = "x86_64-pc-linux-gnu"

%struct.ShellState = type { ptr, i8, i8, i8, i8, i8, i8, i8, i8, i8, i8, i8, i8, i8, %struct.ColModeOpts, i32, i32, i32, i32, i32, i32, i32, ptr, ptr, ptr, i32, i32, i32, i32, i32, i32, i32, i32, i32, i32, i32, i32, i32, i64, ptr, ptr, [30 x i8], [20 x i8], [20 x i8], [20 x i8], [20 x i8], ptr, ptr, i32, [20 x i8], [4096 x i8], ptr, ptr, [5 x %struct.AuxDb], ptr, ptr, i32, i32, ptr, %struct.EQPGraph, %struct.ExpertInfo }
%struct.ColModeOpts = type { i32, i8, i8 }
%struct.AuxDb = type { ptr, ptr, ptr }
%struct.EQPGraph = type { ptr, ptr, [100 x i8] }
%struct.ExpertInfo = type { ptr, i32 }

@.str.1689 = private unnamed_addr constant [5 x i8] c"TEMP\00", align 1
@.str.1697 = private unnamed_addr constant [18 x i8] c"sqlite_parameters\00", align 1
@.str.1698 = private unnamed_addr constant [4 x i8] c"key\00", align 1
@.str.1699 = private unnamed_addr constant [54 x i8] c"SELECT value FROM temp.sqlite_parameters WHERE key=?1\00", align 1
@.str.1700 = private unnamed_addr constant [4 x i8] c"?%d\00", align 1
@.str.1701 = private unnamed_addr constant [5 x i8] c"_NAN\00", align 1
@.str.1702 = private unnamed_addr constant [5 x i8] c"_INF\00", align 1
@.str.1703 = private unnamed_addr constant [6 x i8] c"$int_\00", align 1
@.str.1704 = private unnamed_addr constant [7 x i8] c"$text_\00", align 1

; Function Attrs: inlinehint nounwind willreturn memory(read) uwtable
define available_externally i32 @atoi(ptr noundef nonnull %0) #13 {
  %2 = alloca ptr, align 8
  store ptr %0, ptr %2, align 8, !tbaa !36
  %3 = load ptr, ptr %2, align 8, !tbaa !36
  %4 = call i64 @strtol(ptr noundef %3, ptr noundef null, i32 noundef 10) #14
  %5 = trunc i64 %4 to i32
  ret i32 %5
}

; Function Attrs: nounwind uwtable
define internal void @bind_prepared_stmt(ptr noundef %0, ptr noundef %1) #0 {
  %3 = alloca ptr, align 8
  %4 = alloca ptr, align 8
  %5 = alloca i32, align 4
  %6 = alloca i32, align 4
  %7 = alloca i32, align 4
  %8 = alloca ptr, align 8
  %9 = alloca i32, align 4
  %10 = alloca [30 x i8], align 16
  %11 = alloca ptr, align 8
  %12 = alloca i64, align 8
  %13 = alloca ptr, align 8
  store ptr %0, ptr %3, align 8, !tbaa !373
  store ptr %1, ptr %4, align 8, !tbaa !38
  call void @llvm.lifetime.start.p0(i64 4, ptr %5) #14
  call void @llvm.lifetime.start.p0(i64 4, ptr %6) #14
  call void @llvm.lifetime.start.p0(i64 4, ptr %7) #14
  call void @llvm.lifetime.start.p0(i64 8, ptr %8) #14
  store ptr null, ptr %8, align 8, !tbaa !38
  %14 = load ptr, ptr %4, align 8, !tbaa !38
  %15 = call i32 @sqlite3_bind_parameter_count(ptr noundef %14)
  store i32 %15, ptr %5, align 4, !tbaa !3
  %16 = load i32, ptr %5, align 4, !tbaa !3
  %17 = icmp eq i32 %16, 0
  br i1 %17, label %18, label %19

18:                                               ; preds = %2
  store i32 1, ptr %9, align 4
  br label %135

19:                                               ; preds = %2
  %20 = load ptr, ptr %3, align 8, !tbaa !373
  %21 = getelementptr inbounds nuw %struct.ShellState, ptr %20, i32 0, i32 0
  %22 = load ptr, ptr %21, align 8, !tbaa !367
  %23 = call i32 @sqlite3_table_column_metadata(ptr noundef %22, ptr noundef @.str.1689, ptr noundef @.str.1697, ptr noundef @.str.1698, ptr noundef null, ptr noundef null, ptr noundef null, ptr noundef null, ptr noundef null)
  %24 = icmp ne i32 %23, 0
  br i1 %24, label %25, label %26

25:                                               ; preds = %19
  store i32 12, ptr %7, align 4, !tbaa !3
  store ptr null, ptr %8, align 8, !tbaa !38
  br label %31

26:                                               ; preds = %19
  %27 = load ptr, ptr %3, align 8, !tbaa !373
  %28 = getelementptr inbounds nuw %struct.ShellState, ptr %27, i32 0, i32 0
  %29 = load ptr, ptr %28, align 8, !tbaa !367
  %30 = call i32 @sqlite3_prepare_v2(ptr noundef %29, ptr noundef @.str.1699, i32 noundef -1, ptr noundef %8, ptr noundef null)
  store i32 %30, ptr %7, align 4, !tbaa !3
  br label %31

31:                                               ; preds = %26, %25
  store i32 1, ptr %6, align 4, !tbaa !3
  br label %32

32:                                               ; preds = %129, %31
  %33 = load i32, ptr %6, align 4, !tbaa !3
  %34 = load i32, ptr %5, align 4, !tbaa !3
  %35 = icmp sle i32 %33, %34
  br i1 %35, label %36, label %132

36:                                               ; preds = %32
  call void @llvm.lifetime.start.p0(i64 30, ptr %10) #14
  call void @llvm.lifetime.start.p0(i64 8, ptr %11) #14
  %37 = load ptr, ptr %4, align 8, !tbaa !38
  %38 = load i32, ptr %6, align 4, !tbaa !3
  %39 = call ptr @sqlite3_bind_parameter_name(ptr noundef %37, i32 noundef %38)
  store ptr %39, ptr %11, align 8, !tbaa !36
  %40 = load ptr, ptr %11, align 8, !tbaa !36
  %41 = icmp eq ptr %40, null
  br i1 %41, label %42, label %47

42:                                               ; preds = %36
  %43 = getelementptr inbounds [30 x i8], ptr %10, i64 0, i64 0
  %44 = load i32, ptr %6, align 4, !tbaa !3
  %45 = call ptr (i32, ptr, ptr, ...) @sqlite3_snprintf(i32 noundef 30, ptr noundef %43, ptr noundef @.str.1700, i32 noundef %44)
  %46 = getelementptr inbounds [30 x i8], ptr %10, i64 0, i64 0
  store ptr %46, ptr %11, align 8, !tbaa !36
  br label %47

47:                                               ; preds = %42, %36
  %48 = load ptr, ptr %8, align 8, !tbaa !38
  %49 = load ptr, ptr %11, align 8, !tbaa !36
  %50 = call i32 @sqlite3_bind_text(ptr noundef %48, i32 noundef 1, ptr noundef %49, i32 noundef -1, ptr noundef null)
  %51 = load i32, ptr %7, align 4, !tbaa !3
  %52 = icmp eq i32 %51, 0
  br i1 %52, label %53, label %66

53:                                               ; preds = %47
  %54 = load ptr, ptr %8, align 8, !tbaa !38
  %55 = icmp ne ptr %54, null
  br i1 %55, label %56, label %66

56:                                               ; preds = %53
  %57 = load ptr, ptr %8, align 8, !tbaa !38
  %58 = call i32 @sqlite3_step(ptr noundef %57)
  %59 = icmp eq i32 %58, 100
  br i1 %59, label %60, label %66

60:                                               ; preds = %56
  %61 = load ptr, ptr %4, align 8, !tbaa !38
  %62 = load i32, ptr %6, align 4, !tbaa !3
  %63 = load ptr, ptr %8, align 8, !tbaa !38
  %64 = call ptr @sqlite3_column_value(ptr noundef %63, i32 noundef 0)
  %65 = call i32 @sqlite3_bind_value(ptr noundef %61, i32 noundef %62, ptr noundef %64)
  br label %126

66:                                               ; preds = %56, %53, %47
  %67 = load ptr, ptr %11, align 8, !tbaa !36
  %68 = call i32 @sqlite3_strlike(ptr noundef @.str.1701, ptr noundef %67, i32 noundef 0)
  %69 = icmp eq i32 %68, 0
  br i1 %69, label %70, label %74

70:                                               ; preds = %66
  %71 = load ptr, ptr %4, align 8, !tbaa !38
  %72 = load i32, ptr %6, align 4, !tbaa !3
  %73 = call i32 @sqlite3_bind_double(ptr noundef %71, i32 noundef %72, double noundef 0x7FF8000000000000)
  br label %125

74:                                               ; preds = %66
  %75 = load ptr, ptr %11, align 8, !tbaa !36
  %76 = call i32 @sqlite3_strlike(ptr noundef @.str.1702, ptr noundef %75, i32 noundef 0)
  %77 = icmp eq i32 %76, 0
  br i1 %77, label %78, label %82

78:                                               ; preds = %74
  %79 = load ptr, ptr %4, align 8, !tbaa !38
  %80 = load i32, ptr %6, align 4, !tbaa !3
  %81 = call i32 @sqlite3_bind_double(ptr noundef %79, i32 noundef %80, double noundef 0x7FF0000000000000)
  br label %124

82:                                               ; preds = %74
  %83 = load ptr, ptr %11, align 8, !tbaa !36
  %84 = call i32 @strncmp(ptr noundef %83, ptr noundef @.str.1703, i64 noundef 5) #15
  %85 = icmp eq i32 %84, 0
  br i1 %85, label %86, label %93

86:                                               ; preds = %82
  %87 = load ptr, ptr %4, align 8, !tbaa !38
  %88 = load i32, ptr %6, align 4, !tbaa !3
  %89 = load ptr, ptr %11, align 8, !tbaa !36
  %90 = getelementptr inbounds i8, ptr %89, i64 5
  %91 = call i32 @atoi(ptr noundef %90) #15
  %92 = call i32 @sqlite3_bind_int(ptr noundef %87, i32 noundef %88, i32 noundef %91)
  br label %123

93:                                               ; preds = %82
  %94 = load ptr, ptr %11, align 8, !tbaa !36
  %95 = call i32 @strncmp(ptr noundef %94, ptr noundef @.str.1704, i64 noundef 6) #15
  %96 = icmp eq i32 %95, 0
  br i1 %96, label %97, label %118

97:                                               ; preds = %93
  call void @llvm.lifetime.start.p0(i64 8, ptr %12) #14
  %98 = load ptr, ptr %11, align 8, !tbaa !36
  %99 = call i64 @strlen(ptr noundef %98) #15
  store i64 %99, ptr %12, align 8, !tbaa !113
  call void @llvm.lifetime.start.p0(i64 8, ptr %13) #14
  %100 = load i64, ptr %12, align 8, !tbaa !113
  %101 = sub i64 %100, 5
  %102 = call ptr @sqlite3_malloc64(i64 noundef %101)
  store ptr %102, ptr %13, align 8, !tbaa !36
  %103 = load ptr, ptr %13, align 8, !tbaa !36
  %104 = icmp ne ptr %103, null
  br i1 %104, label %105, label %117

105:                                              ; preds = %97
  %106 = load ptr, ptr %13, align 8, !tbaa !36
  %107 = load ptr, ptr %11, align 8, !tbaa !36
  %108 = getelementptr inbounds i8, ptr %107, i64 6
  %109 = load i64, ptr %12, align 8, !tbaa !113
  %110 = sub i64 %109, 5
  call void @llvm.memcpy.p0.p0.i64(ptr align 1 %106, ptr align 1 %108, i64 %110, i1 false)
  %111 = load ptr, ptr %4, align 8, !tbaa !38
  %112 = load i32, ptr %6, align 4, !tbaa !3
  %113 = load ptr, ptr %13, align 8, !tbaa !36
  %114 = load i64, ptr %12, align 8, !tbaa !113
  %115 = sub i64 %114, 6
  %116 = call i32 @sqlite3_bind_text64(ptr noundef %111, i32 noundef %112, ptr noundef %113, i64 noundef %115, ptr noundef @sqlite3_free, i8 noundef zeroext 1)
  br label %117

117:                                              ; preds = %105, %97
  call void @llvm.lifetime.end.p0(i64 8, ptr %13) #14
  call void @llvm.lifetime.end.p0(i64 8, ptr %12) #14
  br label %122

118:                                              ; preds = %93
  %119 = load ptr, ptr %4, align 8, !tbaa !38
  %120 = load i32, ptr %6, align 4, !tbaa !3
  %121 = call i32 @sqlite3_bind_null(ptr noundef %119, i32 noundef %120)
  br label %122

122:                                              ; preds = %118, %117
  br label %123

123:                                              ; preds = %122, %86
  br label %124

124:                                              ; preds = %123, %78
  br label %125

125:                                              ; preds = %124, %70
  br label %126

126:                                              ; preds = %125, %60
  %127 = load ptr, ptr %8, align 8, !tbaa !38
  %128 = call i32 @sqlite3_reset(ptr noundef %127)
  call void @llvm.lifetime.end.p0(i64 8, ptr %11) #14
  call void @llvm.lifetime.end.p0(i64 30, ptr %10) #14
  br label %129

129:                                              ; preds = %126
  %130 = load i32, ptr %6, align 4, !tbaa !3
  %131 = add nsw i32 %130, 1
  store i32 %131, ptr %6, align 4, !tbaa !3
  br label %32, !llvm.loop !1194

132:                                              ; preds = %32
  %133 = load ptr, ptr %8, align 8, !tbaa !38
  %134 = call i32 @sqlite3_finalize(ptr noundef %133)
  store i32 0, ptr %9, align 4
  br label %135

135:                                              ; preds = %132, %18
  call void @llvm.lifetime.end.p0(i64 8, ptr %8) #14
  call void @llvm.lifetime.end.p0(i64 4, ptr %7) #14
  call void @llvm.lifetime.end.p0(i64 4, ptr %6) #14
  call void @llvm.lifetime.end.p0(i64 4, ptr %5) #14
  %136 = load i32, ptr %9, align 4
  switch i32 %136, label %138 [
    i32 0, label %137
    i32 1, label %137
  ]

137:                                              ; preds = %135, %135
  ret void

138:                                              ; preds = %135
  unreachable
}