; Function Attrs: nounwind uwtable
define internal fastcc void @bind_prepared_stmt(ptr noundef readonly captures(none) %0, ptr noundef %1) unnamed_addr #2 {
  %3 = alloca ptr, align 8
  %4 = alloca [30 x i8], align 16
  call void @llvm.lifetime.start.p0(i64 8, ptr nonnull %3) #43
  store ptr null, ptr %3, align 8, !tbaa !31
  %5 = tail call i32 @sqlite3_bind_parameter_count(ptr noundef %1) #43
  %6 = icmp eq i32 %5, 0
  br i1 %6, label %69, label %7

7:                                                ; preds = %2
  %8 = load ptr, ptr %0, align 8, !tbaa !478
  %9 = tail call i32 @sqlite3_table_column_metadata(ptr noundef %8, ptr noundef nonnull @.str.1689, ptr noundef nonnull @.str.1697, ptr noundef nonnull @.str.1698, ptr noundef null, ptr noundef null, ptr noundef null, ptr noundef null, ptr noundef null) #43
  %.not = icmp eq i32 %9, 0
  br i1 %.not, label %11, label %10

10:                                               ; preds = %7
  store ptr null, ptr %3, align 8, !tbaa !31
  br label %15

11:                                               ; preds = %7
  %12 = load ptr, ptr %0, align 8, !tbaa !478
  %13 = call i32 @sqlite3_prepare_v2(ptr noundef %12, ptr noundef nonnull @.str.1699, i32 noundef -1, ptr noundef nonnull %3, ptr noundef null) #43
  %14 = icmp eq i32 %13, 0
  br label %15

15:                                               ; preds = %11, %10
  %.038 = phi i1 [ false, %10 ], [ %14, %11 ]
  %.not4446 = icmp slt i32 %5, 1
  br i1 %.not4446, label %._crit_edge, label %.lr.ph

.lr.ph:                                           ; preds = %15, %63
  %.047 = phi i32 [ %66, %63 ], [ 1, %15 ]
  call void @llvm.lifetime.start.p0(i64 30, ptr nonnull %4) #43
  %16 = call ptr @sqlite3_bind_parameter_name(ptr noundef %1, i32 noundef %.047) #43
  %17 = icmp eq ptr %16, null
  br i1 %17, label %18, label %20

18:                                               ; preds = %.lr.ph
  %19 = call ptr (i32, ptr, ptr, ...) @sqlite3_snprintf(i32 noundef 30, ptr noundef nonnull %4, ptr noundef nonnull @.str.1700, i32 noundef %.047) #43
  br label %20

20:                                               ; preds = %18, %.lr.ph
  %.039 = phi ptr [ %4, %18 ], [ %16, %.lr.ph ]
  %21 = load ptr, ptr %3, align 8, !tbaa !31
  %22 = call i32 @sqlite3_bind_text(ptr noundef %21, i32 noundef 1, ptr noundef nonnull %.039, i32 noundef -1, ptr noundef null) #43
  %23 = load ptr, ptr %3, align 8
  %24 = icmp ne ptr %23, null
  %or.cond = select i1 %.038, i1 %24, i1 false
  br i1 %or.cond, label %25, label %32

25:                                               ; preds = %20
  %26 = call i32 @sqlite3_step(ptr noundef nonnull %23) #43
  %27 = icmp eq i32 %26, 100
  br i1 %27, label %28, label %32

28:                                               ; preds = %25
  %29 = load ptr, ptr %3, align 8, !tbaa !31
  %30 = call ptr @sqlite3_column_value(ptr noundef %29, i32 noundef 0) #43
  %31 = call i32 @sqlite3_bind_value(ptr noundef %1, i32 noundef %.047, ptr noundef %30) #43
  br label %63

32:                                               ; preds = %25, %20
  %33 = call i32 @sqlite3_strlike(ptr noundef nonnull @.str.1701, ptr noundef nonnull %.039, i32 noundef 0) #43
  %34 = icmp eq i32 %33, 0
  br i1 %34, label %35, label %37

35:                                               ; preds = %32
  %36 = call i32 @sqlite3_bind_double(ptr noundef %1, i32 noundef %.047, double noundef 0x7FF8000000000000) #43
  br label %63

37:                                               ; preds = %32
  %38 = call i32 @sqlite3_strlike(ptr noundef nonnull @.str.1702, ptr noundef nonnull %.039, i32 noundef 0) #43
  %39 = icmp eq i32 %38, 0
  br i1 %39, label %40, label %42

40:                                               ; preds = %37
  %41 = call i32 @sqlite3_bind_double(ptr noundef %1, i32 noundef %.047, double noundef 0x7FF0000000000000) #43
  br label %63

42:                                               ; preds = %37
  %43 = call i32 @strncmp(ptr noundef nonnull dereferenceable(1) %.039, ptr noundef nonnull dereferenceable(6) @.str.1703, i64 noundef 5) #44
  %44 = icmp eq i32 %43, 0
  br i1 %44, label %45, label %50

45:                                               ; preds = %42
  %46 = getelementptr inbounds nuw i8, ptr %.039, i64 5
  %47 = call i64 @strtol(ptr noundef nonnull captures(none) %46, ptr noundef null, i32 noundef 10) #43
  %48 = trunc i64 %47 to i32
  %49 = call i32 @sqlite3_bind_int(ptr noundef %1, i32 noundef %.047, i32 noundef %48) #43
  br label %63

50:                                               ; preds = %42
  %51 = call i32 @strncmp(ptr noundef nonnull dereferenceable(1) %.039, ptr noundef nonnull dereferenceable(7) @.str.1704, i64 noundef 6) #44
  %52 = icmp eq i32 %51, 0
  br i1 %52, label %53, label %61

53:                                               ; preds = %50
  %54 = call i64 @strlen(ptr noundef nonnull dereferenceable(1) %.039) #44
  %55 = add i64 %54, -5
  %56 = call ptr @sqlite3_malloc64(i64 noundef %55) #43
  %.not45 = icmp eq ptr %56, null
  br i1 %.not45, label %63, label %57

57:                                               ; preds = %53
  %58 = getelementptr inbounds nuw i8, ptr %.039, i64 6
  call void @llvm.memcpy.p0.p0.i64(ptr nonnull align 1 %56, ptr nonnull align 1 %58, i64 %55, i1 false)
  %59 = add i64 %54, -6
  %60 = call i32 @sqlite3_bind_text64(ptr noundef %1, i32 noundef %.047, ptr noundef nonnull %56, i64 noundef %59, ptr noundef nonnull @sqlite3_free, i8 noundef zeroext 1) #43
  br label %63

61:                                               ; preds = %50
  %62 = call i32 @sqlite3_bind_null(ptr noundef %1, i32 noundef %.047) #43
  br label %63

63:                                               ; preds = %53, %57, %35, %45, %61, %40, %28
  %64 = load ptr, ptr %3, align 8, !tbaa !31
  %65 = call i32 @sqlite3_reset(ptr noundef %64) #43
  call void @llvm.lifetime.end.p0(i64 30, ptr nonnull %4) #43
  %66 = add nuw i32 %.047, 1
  %exitcond.not = icmp eq i32 %.047, %5
  br i1 %exitcond.not, label %._crit_edge, label %.lr.ph, !llvm.loop !1068

._crit_edge:                                      ; preds = %63, %15
  %67 = load ptr, ptr %3, align 8, !tbaa !31
  %68 = call i32 @sqlite3_finalize(ptr noundef %67) #43
  br label %69

69:                                               ; preds = %2, %._crit_edge
  call void @llvm.lifetime.end.p0(i64 8, ptr nonnull %3) #43
  ret void
}